; Function Attrs: mustprogress uwtable
define dso_local void @_ZN13GroupProbElemC2EbRKNSt7__cxx1112basic_stringIcSt11char_traitsIcESaIcEEE(ptr noundef nonnull align 8 dereferenceable(96) %0, i1 noundef zeroext %1, ptr noundef nonnull align 8 dereferenceable(32) %2) unnamed_addr #3 align 2 personality ptr @__gxx_personality_v0 {
  %4 = zext i1 %1 to i8
  store ptr getelementptr inbounds ({ [10 x ptr] }, ptr @_ZTV13GroupProbElem, i64 0, i32 0, i64 2), ptr %0, align 8
  %5 = getelementptr inbounds i8, ptr %0, i64 8
  store i8 %4, ptr %5, align 8
  %6 = getelementptr inbounds i8, ptr %0, i64 16
  tail call void @_ZNSt7__cxx1112basic_stringIcSt11char_traitsIcESaIcEEC1ERKS4_(ptr noundef nonnull align 8 dereferenceable(32) %6, ptr noundef nonnull align 8 dereferenceable(32) %2)
  %7 = getelementptr inbounds i8, ptr %0, i64 56
  store i32 0, ptr %7, align 8
  %8 = getelementptr inbounds i8, ptr %0, i64 64
  store ptr null, ptr %8, align 8
  %9 = getelementptr inbounds i8, ptr %0, i64 72
  store ptr %7, ptr %9, align 8
  %10 = getelementptr inbounds i8, ptr %0, i64 80
  store ptr %7, ptr %10, align 8
  %11 = getelementptr inbounds i8, ptr %0, i64 88
  store i64 0, ptr %11, align 8
  ret void
}